target datalayout = "e-m:e-p270:32:32-p271:32:32-p272:64:64-i64:64-i128:128-f80:128-n8:16:32:64-S128"
target triple = "x86_64-unknown-linux-gnu"

%struct.MonitorHMP = type { %struct.Monitor, i8, ptr }
%struct.Monitor = type { %struct.CharBackend, i32, i8, i8, i8, ptr, %union.anon, %struct.QemuMutex, %struct.anon, ptr, i32, i32, i32 }
%struct.CharBackend = type { ptr, ptr, ptr, ptr, ptr, ptr, i32, i32 }
%union.anon = type { %struct.QTailQLink }
%struct.QTailQLink = type { ptr, ptr }
%struct.QemuMutex = type { %union.pthread_mutex_t, i8 }
%union.pthread_mutex_t = type { %struct.__pthread_mutex_s }
%struct.__pthread_mutex_s = type { i32, i32, i32, i32, i32, i16, i16, %struct.__pthread_internal_list }
%struct.__pthread_internal_list = type { ptr, ptr }
%struct.anon = type { ptr }

@.str.1 = private unnamed_addr constant [11 x i8] c"Password: \00", align 1
@.str.2 = private unnamed_addr constant [46 x i8] c"terminal does not support password prompting\0A\00", align 1

; Function Attrs: nounwind sspstrong uwtable
define dso_local i32 @monitor_read_password(ptr noundef %mon, ptr noundef %readline_func, ptr noundef %opaque) #0 {
entry:
  %retval = alloca i32, align 4
  %mon.addr = alloca ptr, align 8
  %readline_func.addr = alloca ptr, align 8
  %opaque.addr = alloca ptr, align 8
  store ptr %mon, ptr %mon.addr, align 8
  store ptr %readline_func, ptr %readline_func.addr, align 8
  store ptr %opaque, ptr %opaque.addr, align 8
  %0 = load ptr, ptr %mon.addr, align 8
  %rs = getelementptr inbounds %struct.MonitorHMP, ptr %0, i32 0, i32 2
  %1 = load ptr, ptr %rs, align 8
  %tobool = icmp ne ptr %1, null
  br i1 %tobool, label %if.then, label %if.else

if.then:                                          ; preds = %entry
  %2 = load ptr, ptr %mon.addr, align 8
  %rs1 = getelementptr inbounds %struct.MonitorHMP, ptr %2, i32 0, i32 2
  %3 = load ptr, ptr %rs1, align 8
  %4 = load ptr, ptr %readline_func.addr, align 8
  %5 = load ptr, ptr %opaque.addr, align 8
  call void @readline_start(ptr noundef %3, ptr noundef @.str.1, i32 noundef 1, ptr noundef %4, ptr noundef %5)
  store i32 0, ptr %retval, align 4
  br label %return

if.else:                                          ; preds = %entry
  %6 = load ptr, ptr %mon.addr, align 8
  %common = getelementptr inbounds %struct.MonitorHMP, ptr %6, i32 0, i32 0
  %call = call i32 (ptr, ptr, ...) @monitor_printf(ptr noundef %common, ptr noundef @.str.2)
  store i32 -25, ptr %retval, align 4
  br label %return

return:                                           ; preds = %if.else, %if.then
  %7 = load i32, ptr %retval, align 4
  ret i32 %7
}