; Function Attrs: nounwind sspstrong uwtable
define dso_local range(i32 -25, 1) i32 @monitor_read_password(ptr noundef %mon, ptr noundef %readline_func, ptr noundef %opaque) local_unnamed_addr #0 {
entry:
  %rs = getelementptr inbounds nuw i8, ptr %mon, i64 176
  %0 = load ptr, ptr %rs, align 8
  %tobool.not = icmp eq ptr %0, null
  br i1 %tobool.not, label %if.else, label %if.then

if.then:                                          ; preds = %entry
  tail call void @readline_start(ptr noundef nonnull %0, ptr noundef nonnull @.str.1, i32 noundef 1, ptr noundef %readline_func, ptr noundef %opaque) #19
  br label %return

if.else:                                          ; preds = %entry
  %call = tail call i32 (ptr, ptr, ...) @monitor_printf(ptr noundef nonnull %mon, ptr noundef nonnull @.str.2) #19
  br label %return

return:                                           ; preds = %if.else, %if.then
  %retval.0 = phi i32 [ 0, %if.then ], [ -25, %if.else ]
  ret i32 %retval.0
}